; Function Attrs: nounwind sspstrong uwtable
define internal range(i64 1, -7) i64 @ossl_bn_self_rshift(i64 noundef returned %0, i64 noundef %1) #0 {
  %3 = icmp eq i64 %0, 0
  %4 = and i64 %0, 7
  %5 = icmp ne i64 %4, 0
  %6 = or i1 %3, %5
  br i1 %6, label %RB_OBJ_FROZEN.exit.thread.i, label %RB_FL_ABLE.exit.i.i, !prof !18

RB_FL_ABLE.exit.i.i:                              ; preds = %2
  %7 = inttoptr i64 %0 to ptr
  %8 = load i64, ptr %7, align 8, !tbaa !15
  %9 = and i64 %8, 31
  %.not.i.i = icmp eq i64 %9, 27
  %10 = and i64 %8, 2048
  %11 = icmp ne i64 %10, 0
  %or.cond.i = or i1 %.not.i.i, %11
  br i1 %or.cond.i, label %RB_OBJ_FROZEN.exit.thread.i, label %rbimpl_RB_TYPE_P_fastpath.exit.i, !prof !19

RB_OBJ_FROZEN.exit.thread.i:                      ; preds = %RB_FL_ABLE.exit.i.i, %2
  tail call void @rb_error_frozen_object(i64 noundef %0) #12
  unreachable

rbimpl_RB_TYPE_P_fastpath.exit.i:                 ; preds = %RB_FL_ABLE.exit.i.i
  %12 = icmp ne i64 %9, 5
  %13 = and i64 %8, 49152
  %.not.i = icmp eq i64 %13, 0
  %or.cond8.i = or i1 %12, %.not.i
  br i1 %or.cond8.i, label %rb_check_frozen_inline.exit, label %14, !prof !20

14:                                               ; preds = %rbimpl_RB_TYPE_P_fastpath.exit.i
  tail call void @rb_str_modify(i64 noundef %0) #11
  br label %rb_check_frozen_inline.exit

rb_check_frozen_inline.exit:                      ; preds = %rbimpl_RB_TYPE_P_fastpath.exit.i, %14
  %15 = and i64 %1, 1
  %.not.i7 = icmp eq i64 %15, 0
  br i1 %.not.i7, label %18, label %16

16:                                               ; preds = %rb_check_frozen_inline.exit
  %17 = tail call i64 @rb_fix2int(i64 noundef %1) #11
  br label %rb_num2int_inline.exit

18:                                               ; preds = %rb_check_frozen_inline.exit
  %19 = tail call i64 @rb_num2int(i64 noundef %1) #11
  br label %rb_num2int_inline.exit

rb_num2int_inline.exit:                           ; preds = %16, %18
  %.0.i = phi i64 [ %17, %16 ], [ %19, %18 ]
  %20 = tail call ptr @rb_check_typeddata(i64 noundef %0, ptr noundef nonnull @ossl_bn_type) #11
  %.not = icmp eq ptr %20, null
  br i1 %.not, label %21, label %23

21:                                               ; preds = %rb_num2int_inline.exit
  %22 = load i64, ptr @rb_eRuntimeError, align 8, !tbaa !6
  tail call void (i64, ptr, ...) @ossl_raise(i64 noundef %22, ptr noundef nonnull @.str) #12
  unreachable

23:                                               ; preds = %rb_num2int_inline.exit
  %24 = trunc i64 %.0.i to i32
  %25 = tail call i32 @BN_rshift(ptr noundef nonnull %20, ptr noundef nonnull %20, i32 noundef %24) #11
  %26 = icmp slt i32 %25, 1
  br i1 %26, label %27, label %29

27:                                               ; preds = %23
  %28 = load i64, ptr @eBNError, align 8, !tbaa !6
  tail call void (i64, ptr, ...) @ossl_raise(i64 noundef %28, ptr noundef null) #12
  unreachable

29:                                               ; preds = %23
  ret i64 %0
}